; Function Attrs: nounwind uwtable
define void @Prs_ManWriteVerilogArray(ptr noundef captures(none) %0, ptr noundef readonly captures(none) %1, ptr noundef readonly captures(none) %2, i32 noundef %3) local_unnamed_addr #2 {
  %5 = getelementptr i8, ptr %2, i64 4
  %.val15 = load i32, ptr %5, align 4, !tbaa !22
  %6 = icmp sgt i32 %.val15, 0
  br i1 %6, label %.lr.ph, label %.critedge

.lr.ph:                                           ; preds = %4
  %.not.not = icmp eq i32 %3, 0
  %7 = getelementptr i8, ptr %2, i64 8
  br i1 %.not.not, label %.lr.ph.split.us, label %.lr.ph.split

.lr.ph.split.us:                                  ; preds = %.lr.ph, %.lr.ph.split.us
  %indvars.iv20 = phi i64 [ %indvars.iv.next21, %.lr.ph.split.us ], [ 0, %.lr.ph ]
  %.not13.us = phi ptr [ @.str.58, %.lr.ph.split.us ], [ @.str.2, %.lr.ph ]
  %.val14.us = load ptr, ptr %7, align 8, !tbaa !23
  %8 = getelementptr inbounds nuw i32, ptr %.val14.us, i64 %indvars.iv20
  %9 = load i32, ptr %8, align 4, !tbaa !24
  %fputs.us = tail call i32 @fputs(ptr nonnull %.not13.us, ptr %0)
  tail call fastcc void @Prs_ManWriteVerilogSignal(ptr noundef %0, ptr noundef %1, i32 noundef %9)
  %indvars.iv.next21 = add nuw nsw i64 %indvars.iv20, 1
  %.val.us = load i32, ptr %5, align 4, !tbaa !22
  %10 = sext i32 %.val.us to i64
  %11 = icmp slt i64 %indvars.iv.next21, %10
  br i1 %11, label %.lr.ph.split.us, label %.critedge, !llvm.loop !25

.lr.ph.split:                                     ; preds = %.lr.ph, %17
  %.val23 = phi i32 [ %.val, %17 ], [ %.val15, %.lr.ph ]
  %indvars.iv = phi i64 [ %indvars.iv.next, %17 ], [ 0, %.lr.ph ]
  %.017 = phi i32 [ %.1, %17 ], [ 1, %.lr.ph ]
  %12 = and i64 %indvars.iv, 1
  %.not12 = icmp eq i64 %12, 0
  br i1 %.not12, label %17, label %13

13:                                               ; preds = %.lr.ph.split
  %.val14 = load ptr, ptr %7, align 8, !tbaa !23
  %14 = getelementptr inbounds nuw i32, ptr %.val14, i64 %indvars.iv
  %15 = load i32, ptr %14, align 4, !tbaa !24
  %.not13 = icmp eq i32 %.017, 0
  %16 = select i1 %.not13, ptr @.str.58, ptr @.str.2
  %fputs = tail call i32 @fputs(ptr nonnull %16, ptr %0)
  tail call fastcc void @Prs_ManWriteVerilogSignal(ptr noundef %0, ptr noundef %1, i32 noundef %15)
  %.val.pre = load i32, ptr %5, align 4, !tbaa !22
  br label %17

17:                                               ; preds = %.lr.ph.split, %13
  %.val = phi i32 [ %.val.pre, %13 ], [ %.val23, %.lr.ph.split ]
  %.1 = phi i32 [ 0, %13 ], [ %.017, %.lr.ph.split ]
  %indvars.iv.next = add nuw nsw i64 %indvars.iv, 1
  %18 = sext i32 %.val to i64
  %19 = icmp slt i64 %indvars.iv.next, %18
  br i1 %19, label %.lr.ph.split, label %.critedge, !llvm.loop !25

.critedge:                                        ; preds = %17, %.lr.ph.split.us, %4
  ret void
}